target datalayout = "e-m:e-p270:32:32-p271:32:32-p272:64:64-i64:64-i128:128-f80:128-n8:16:32:64-S128"
target triple = "x86_64-pc-linux-gnu"

%struct._psqlSettings = type { ptr, i32, ptr, i8, ptr, ptr, %struct.printQueryOpt, ptr, ptr, ptr, i8, i8, i32, i32, ptr, ptr, i8, [4 x ptr], i8, i32, ptr, i8, i32, ptr, ptr, i64, i64, i8, ptr, ptr, ptr, i8, i8, i8, i8, i8, i8, i8, i32, i32, i32, i32, i32, i32, i32, i32, ptr, ptr, ptr, i32, i8, i32 }
%struct.printQueryOpt = type { %struct.printTableOpt, ptr, ptr, ptr, i8, ptr, i32 }
%struct.printTableOpt = type { i32, i16, i32, i32, i16, i16, i32, i8, i8, i8, i8, i64, ptr, %struct.separator, %struct.separator, [2 x i8], i8, ptr, i32, i32, i32, i32, i32, i32 }
%struct.separator = type { ptr, i8 }

@pset = dso_local global %struct._psqlSettings zeroinitializer, align 8
@.str.82 = private unnamed_addr constant [12 x i8] c"ECHO_HIDDEN\00", align 1
@.str.119 = private unnamed_addr constant [7 x i8] c"noexec\00", align 1
@.str.120 = private unnamed_addr constant [16 x i8] c"on, off, noexec\00", align 1

; Function Attrs: nounwind uwtable
define internal zeroext i1 @echo_hidden_hook(ptr noundef %0) #0 {
  %2 = alloca i1, align 1
  %3 = alloca ptr, align 8
  %4 = alloca i8, align 1
  %5 = alloca i32, align 4
  store ptr %0, ptr %3, align 8
  %6 = load ptr, ptr %3, align 8
  %7 = call i32 @pg_strcasecmp(ptr noundef %6, ptr noundef @.str.119)
  %8 = icmp eq i32 %7, 0
  br i1 %8, label %9, label %10

9:                                                ; preds = %1
  store i32 2, ptr getelementptr inbounds nuw (%struct._psqlSettings, ptr @pset, i32 0, i32 42), align 8
  br label %23

10:                                               ; preds = %1
  call void @llvm.lifetime.start.p0(i64 1, ptr %4) #8
  %11 = load ptr, ptr %3, align 8
  %12 = call zeroext i1 @ParseVariableBool(ptr noundef %11, ptr noundef null, ptr noundef %4)
  br i1 %12, label %13, label %17

13:                                               ; preds = %10
  %14 = load i8, ptr %4, align 1, !range !4, !noundef !5
  %15 = trunc i8 %14 to i1
  %16 = select i1 %15, i32 1, i32 0
  store i32 %16, ptr getelementptr inbounds nuw (%struct._psqlSettings, ptr @pset, i32 0, i32 42), align 8
  br label %19

17:                                               ; preds = %10
  %18 = load ptr, ptr %3, align 8
  call void @PsqlVarEnumError(ptr noundef @.str.82, ptr noundef %18, ptr noundef @.str.120)
  store i1 false, ptr %2, align 1
  store i32 1, ptr %5, align 4
  br label %20

19:                                               ; preds = %13
  store i32 0, ptr %5, align 4
  br label %20

20:                                               ; preds = %19, %17
  call void @llvm.lifetime.end.p0(i64 1, ptr %4) #8
  %21 = load i32, ptr %5, align 4
  switch i32 %21, label %26 [
    i32 0, label %22
    i32 1, label %24
  ]

22:                                               ; preds = %20
  br label %23

23:                                               ; preds = %22, %9
  store i1 true, ptr %2, align 1
  br label %24

24:                                               ; preds = %23, %20
  %25 = load i1, ptr %2, align 1
  ret i1 %25

26:                                               ; preds = %20
  unreachable
}