; Function Attrs: nounwind uwtable
define internal noundef zeroext i1 @echo_hidden_hook(ptr noundef %0) #0 {
  %2 = alloca i8, align 1
  %3 = tail call i32 @pg_strcasecmp(ptr noundef %0, ptr noundef nonnull @.str.119) #15
  %4 = icmp eq i32 %3, 0
  br i1 %4, label %5, label %6

5:                                                ; preds = %1
  store i32 2, ptr getelementptr inbounds nuw (i8, ptr @pset, i64 424), align 8
  br label %11

6:                                                ; preds = %1
  call void @llvm.lifetime.start.p0(i64 1, ptr nonnull %2) #15
  %7 = call zeroext i1 @ParseVariableBool(ptr noundef %0, ptr noundef null, ptr noundef nonnull %2) #15
  br i1 %7, label %.thread, label %10

.thread:                                          ; preds = %6
  %8 = load i8, ptr %2, align 1, !range !6, !noundef !7
  %9 = zext nneg i8 %8 to i32
  store i32 %9, ptr getelementptr inbounds nuw (i8, ptr @pset, i64 424), align 8
  call void @llvm.lifetime.end.p0(i64 1, ptr nonnull %2) #15
  br label %11

10:                                               ; preds = %6
  call void @PsqlVarEnumError(ptr noundef nonnull @.str.82, ptr noundef %0, ptr noundef nonnull @.str.120) #15
  call void @llvm.lifetime.end.p0(i64 1, ptr nonnull %2) #15
  br label %11

11:                                               ; preds = %5, %.thread, %10
  %.1 = phi i1 [ false, %10 ], [ true, %.thread ], [ true, %5 ]
  ret i1 %.1
}